target datalayout = "e-m:e-p270:32:32-p271:32:32-p272:64:64-i64:64-i128:128-f80:128-n8:16:32:64-S128"
target triple = "x86_64-unknown-linux-gnu"

%"class.std::function" = type { %"class.std::_Function_base", ptr }
%"class.std::_Function_base" = type { %"union.std::_Any_data", ptr }
%"union.std::_Any_data" = type { %"union.std::_Nocopy_types" }
%"union.std::_Nocopy_types" = type { { i64, i64 } }
%class.elim_unconstrained = type <{ %class.dependent_expr_simplifier, %class.expr_inverter, %class.vector.0, %"struct.elim_unconstrained::var_lt", %class.heap, %class.ref_vector, %class.ref_vector, %"struct.elim_unconstrained::stats", [4 x i8], %class.svector.4, i8, i8, [6 x i8] }>
%class.dependent_expr_simplifier = type { ptr, ptr, ptr, ptr }
%class.expr_inverter = type { %class.iexpr_inverter.base, %class.ptr_vector }
%class.iexpr_inverter.base = type <{ ptr, ptr, %"class.std::function", %class.ref, i8 }>
%class.ref = type { ptr }
%class.ptr_vector = type { %class.vector }
%class.vector = type { ptr }
%class.vector.0 = type { ptr }
%"struct.elim_unconstrained::var_lt" = type { ptr }
%class.heap = type { %"struct.elim_unconstrained::var_lt", %class.svector, %class.svector }
%class.svector = type { %class.vector.1 }
%class.vector.1 = type { ptr }
%class.ref_vector = type { %class.ref_vector_core }
%class.ref_vector_core = type { %class.ref_manager_wrapper, %class.ptr_vector.2 }
%class.ref_manager_wrapper = type { ptr }
%class.ptr_vector.2 = type { %class.vector.3 }
%class.vector.3 = type { ptr }
%"struct.elim_unconstrained::stats" = type { i32 }
%class.svector.4 = type { %class.vector.5 }
%class.vector.5 = type { ptr }
%class.vector.44 = type { ptr }
%class.converter = type <{ ptr, i32, [4 x i8] }>

@.str.6 = private unnamed_addr constant [19 x i8] c"elim-unconstrained\00", align 1

; Function Attrs: mustprogress nounwind uwtable
define linkonce_odr hidden void @_ZN9converter7inc_refEv(ptr noundef nonnull align 8 dereferenceable(12) %this) #5 comdat align 2 {
entry:
  %this.addr = alloca ptr, align 8
  store ptr %this, ptr %this.addr, align 8
  %this1 = load ptr, ptr %this.addr, align 8
  %m_ref_count = getelementptr inbounds %class.converter, ptr %this1, i32 0, i32 1
  %0 = load i32, ptr %m_ref_count, align 8
  %inc = add i32 %0, 1
  store i32 %inc, ptr %m_ref_count, align 8
  ret void
}

; Function Attrs: mustprogress uwtable
define linkonce_odr hidden void @_ZN3refI23generic_model_converterE7inc_refEv(ptr noundef nonnull align 8 dereferenceable(8) %this) #4 comdat align 2 {
entry:
  %this.addr = alloca ptr, align 8
  store ptr %this, ptr %this.addr, align 8
  %this1 = load ptr, ptr %this.addr, align 8
  %m_ptr = getelementptr inbounds %class.ref, ptr %this1, i32 0, i32 0
  %0 = load ptr, ptr %m_ptr, align 8
  %tobool = icmp ne ptr %0, null
  br i1 %tobool, label %if.then, label %if.end

if.then:                                          ; preds = %entry
  %m_ptr2 = getelementptr inbounds %class.ref, ptr %this1, i32 0, i32 0
  %1 = load ptr, ptr %m_ptr2, align 8
  call void @_ZN9converter7inc_refEv(ptr noundef nonnull align 8 dereferenceable(12) %1)
  br label %if.end

if.end:                                           ; preds = %if.then, %entry
  ret void
}

; Function Attrs: mustprogress nounwind uwtable
define linkonce_odr hidden noundef nonnull align 8 dereferenceable(80) ptr @_ZN3refI23generic_model_converterEdeEv(ptr noundef nonnull align 8 dereferenceable(8) %this) #5 comdat align 2 {
entry:
  %this.addr = alloca ptr, align 8
  store ptr %this, ptr %this.addr, align 8
  %this1 = load ptr, ptr %this.addr, align 8
  %m_ptr = getelementptr inbounds %class.ref, ptr %this1, i32 0, i32 0
  %0 = load ptr, ptr %m_ptr, align 8
  ret ptr %0
}

; Function Attrs: mustprogress nounwind uwtable
define linkonce_odr hidden void @_ZN6vectorI14dependent_exprLb1EjEC2Ev(ptr noundef nonnull align 8 dereferenceable(8) %this) unnamed_addr #5 comdat align 2 {
entry:
  %this.addr = alloca ptr, align 8
  store ptr %this, ptr %this.addr, align 8
  %this1 = load ptr, ptr %this.addr, align 8
  %m_data = getelementptr inbounds %class.vector.44, ptr %this1, i32 0, i32 0
  store ptr null, ptr %m_data, align 8
  ret void
}

; Function Attrs: mustprogress nounwind uwtable
define linkonce_odr hidden noundef ptr @_ZNK3refI23generic_model_converterE3getEv(ptr noundef nonnull align 8 dereferenceable(8) %this) #5 comdat align 2 {
entry:
  %this.addr = alloca ptr, align 8
  store ptr %this, ptr %this.addr, align 8
  %this1 = load ptr, ptr %this.addr, align 8
  %m_ptr = getelementptr inbounds %class.ref, ptr %this1, i32 0, i32 0
  %0 = load ptr, ptr %m_ptr, align 8
  ret ptr %0
}

; Function Attrs: mustprogress uwtable
define linkonce_odr hidden void @_ZN3refI23generic_model_converterEC2EPS0_(ptr noundef nonnull align 8 dereferenceable(8) %this, ptr noundef %ptr) unnamed_addr #4 comdat align 2 {
entry:
  %this.addr = alloca ptr, align 8
  %ptr.addr = alloca ptr, align 8
  store ptr %this, ptr %this.addr, align 8
  store ptr %ptr, ptr %ptr.addr, align 8
  %this1 = load ptr, ptr %this.addr, align 8
  %m_ptr = getelementptr inbounds %class.ref, ptr %this1, i32 0, i32 0
  %0 = load ptr, ptr %ptr.addr, align 8
  store ptr %0, ptr %m_ptr, align 8
  call void @_ZN3refI23generic_model_converterE7inc_refEv(ptr noundef nonnull align 8 dereferenceable(8) %this1)
  ret void
}

; Function Attrs: mustprogress uwtable
define hidden void @_ZN18elim_unconstrained6reduceEv(ptr noundef nonnull align 8 dereferenceable(194) %this) unnamed_addr #4 align 2 personality ptr @__gxx_personality_v0 {
entry:
  %this.addr = alloca ptr, align 8
  %mc = alloca %class.ref, align 8
  %exn.slot = alloca ptr, align 8
  %ehselector.slot = alloca i32, align 4
  %rounds = alloca i32, align 4
  %old_fmls = alloca %class.vector.44, align 8
  store ptr %this, ptr %this.addr, align 8
  %this1 = load ptr, ptr %this.addr, align 8
  %call = call noalias noundef ptr @_ZN6memory8allocateEm(i64 noundef 80)
  %m = getelementptr inbounds %class.dependent_expr_simplifier, ptr %this1, i32 0, i32 1
  %0 = load ptr, ptr %m, align 8
  call void @_ZN23generic_model_converterC2ER11ast_managerPKc(ptr noundef nonnull align 8 dereferenceable(80) %call, ptr noundef nonnull align 8 dereferenceable(976) %0, ptr noundef @.str.6)
  call void @_ZN3refI23generic_model_converterEC2EPS0_(ptr noundef nonnull align 8 dereferenceable(8) %mc, ptr noundef %call)
  %m_inverter = getelementptr inbounds %class.elim_unconstrained, ptr %this1, i32 0, i32 1
  %call2 = invoke noundef ptr @_ZNK3refI23generic_model_converterE3getEv(ptr noundef nonnull align 8 dereferenceable(8) %mc)
          to label %invoke.cont unwind label %lpad

invoke.cont:                                      ; preds = %entry
  invoke void @_ZN13expr_inverter19set_model_converterEP23generic_model_converter(ptr noundef nonnull align 8 dereferenceable(72) %m_inverter, ptr noundef %call2)
          to label %invoke.cont3 unwind label %lpad

invoke.cont3:                                     ; preds = %invoke.cont
  %m_created_compound = getelementptr inbounds %class.elim_unconstrained, ptr %this1, i32 0, i32 10
  store i8 1, ptr %m_created_compound, align 8
  store i32 0, ptr %rounds, align 4
  br label %for.cond

for.cond:                                         ; preds = %for.inc, %invoke.cont3
  %m_created_compound4 = getelementptr inbounds %class.elim_unconstrained, ptr %this1, i32 0, i32 10
  %1 = load i8, ptr %m_created_compound4, align 8
  %tobool = trunc i8 %1 to i1
  br i1 %tobool, label %land.rhs, label %land.end

land.rhs:                                         ; preds = %for.cond
  %2 = load i32, ptr %rounds, align 4
  %cmp = icmp ult i32 %2, 3
  br label %land.end

land.end:                                         ; preds = %land.rhs, %for.cond
  %3 = phi i1 [ false, %for.cond ], [ %cmp, %land.rhs ]
  br i1 %3, label %for.body, label %for.end

for.body:                                         ; preds = %land.end
  %m_created_compound5 = getelementptr inbounds %class.elim_unconstrained, ptr %this1, i32 0, i32 10
  store i8 0, ptr %m_created_compound5, align 8
  invoke void @_ZN18elim_unconstrained10init_nodesEv(ptr noundef nonnull align 8 dereferenceable(194) %this1)
          to label %invoke.cont6 unwind label %lpad

invoke.cont6:                                     ; preds = %for.body
  invoke void @_ZN18elim_unconstrained9eliminateEv(ptr noundef nonnull align 8 dereferenceable(194) %this1)
          to label %invoke.cont7 unwind label %lpad

invoke.cont7:                                     ; preds = %invoke.cont6
  invoke void @_ZN18elim_unconstrained17reconstruct_termsEv(ptr noundef nonnull align 8 dereferenceable(194) %this1)
          to label %invoke.cont8 unwind label %lpad

invoke.cont8:                                     ; preds = %invoke.cont7
  call void @_ZN6vectorI14dependent_exprLb1EjEC2Ev(ptr noundef nonnull align 8 dereferenceable(8) %old_fmls) #3
  invoke void @_ZN18elim_unconstrained17assert_normalizedER6vectorI14dependent_exprLb1EjE(ptr noundef nonnull align 8 dereferenceable(194) %this1, ptr noundef nonnull align 8 dereferenceable(8) %old_fmls)
          to label %invoke.cont10 unwind label %lpad9

invoke.cont10:                                    ; preds = %invoke.cont8
  %call12 = invoke noundef nonnull align 8 dereferenceable(80) ptr @_ZN3refI23generic_model_converterEdeEv(ptr noundef nonnull align 8 dereferenceable(8) %mc)
          to label %invoke.cont11 unwind label %lpad9

invoke.cont11:                                    ; preds = %invoke.cont10
  invoke void @_ZN18elim_unconstrained18update_model_trailER23generic_model_converterRK6vectorI14dependent_exprLb1EjE(ptr noundef nonnull align 8 dereferenceable(194) %this1, ptr noundef nonnull align 8 dereferenceable(80) %call12, ptr noundef nonnull align 8 dereferenceable(8) %old_fmls)
          to label %invoke.cont13 unwind label %lpad9

invoke.cont13:                                    ; preds = %invoke.cont11
  call void @_ZN6vectorI14dependent_exprLb1EjED2Ev(ptr noundef nonnull align 8 dereferenceable(8) %old_fmls) #3
  br label %for.inc

for.inc:                                          ; preds = %invoke.cont13
  %4 = load i32, ptr %rounds, align 4
  %inc = add i32 %4, 1
  store i32 %inc, ptr %rounds, align 4
  br label %for.cond, !llvm.loop !12

lpad:                                             ; preds = %invoke.cont7, %invoke.cont6, %for.body, %invoke.cont, %entry
  %5 = landingpad { ptr, i32 }
          cleanup
  %6 = extractvalue { ptr, i32 } %5, 0
  store ptr %6, ptr %exn.slot, align 8
  %7 = extractvalue { ptr, i32 } %5, 1
  store i32 %7, ptr %ehselector.slot, align 4
  br label %ehcleanup

lpad9:                                            ; preds = %invoke.cont11, %invoke.cont10, %invoke.cont8
  %8 = landingpad { ptr, i32 }
          cleanup
  %9 = extractvalue { ptr, i32 } %8, 0
  store ptr %9, ptr %exn.slot, align 8
  %10 = extractvalue { ptr, i32 } %8, 1
  store i32 %10, ptr %ehselector.slot, align 4
  call void @_ZN6vectorI14dependent_exprLb1EjED2Ev(ptr noundef nonnull align 8 dereferenceable(8) %old_fmls) #3
  br label %ehcleanup

for.end:                                          ; preds = %land.end
  call void @_ZN3refI23generic_model_converterED2Ev(ptr noundef nonnull align 8 dereferenceable(8) %mc) #3
  ret void

ehcleanup:                                        ; preds = %lpad9, %lpad
  call void @_ZN3refI23generic_model_converterED2Ev(ptr noundef nonnull align 8 dereferenceable(8) %mc) #3
  br label %eh.resume

eh.resume:                                        ; preds = %ehcleanup
  %exn = load ptr, ptr %exn.slot, align 8
  %sel = load i32, ptr %ehselector.slot, align 4
  %lpad.val = insertvalue { ptr, i32 } poison, ptr %exn, 0
  %lpad.val14 = insertvalue { ptr, i32 } %lpad.val, i32 %sel, 1
  resume { ptr, i32 } %lpad.val14
}