; Function Attrs: mustprogress uwtable
define hidden void @_ZN18elim_unconstrained6reduceEv(ptr noundef nonnull align 8 dereferenceable(194) %this) unnamed_addr #3 align 2 personality ptr @__gxx_personality_v0 {
_ZN3refI23generic_model_converterEC2EPS0_.exit:
  %mc = alloca %class.ref, align 8
  %old_fmls = alloca %class.vector.44, align 8
  %call = tail call noalias noundef ptr @_ZN6memory8allocateEm(i64 noundef 80)
  %m = getelementptr inbounds i8, ptr %this, i64 8
  %0 = load ptr, ptr %m, align 8
  tail call void @_ZN23generic_model_converterC2ER11ast_managerPKc(ptr noundef nonnull align 8 dereferenceable(80) %call, ptr noundef nonnull align 8 dereferenceable(976) %0, ptr noundef nonnull @.str.6)
  store ptr %call, ptr %mc, align 8
  %m_ref_count.i.i.i = getelementptr inbounds i8, ptr %call, i64 8
  %1 = load i32, ptr %m_ref_count.i.i.i, align 8
  %inc.i.i.i = add i32 %1, 1
  store i32 %inc.i.i.i, ptr %m_ref_count.i.i.i, align 8
  %m_inverter = getelementptr inbounds i8, ptr %this, i64 32
  invoke void @_ZN13expr_inverter19set_model_converterEP23generic_model_converter(ptr noundef nonnull align 8 dereferenceable(72) %m_inverter, ptr noundef nonnull %call)
          to label %for.body.preheader unwind label %lpad.loopexit.split-lp

for.body.preheader:                               ; preds = %_ZN3refI23generic_model_converterEC2EPS0_.exit
  %m_created_compound = getelementptr inbounds i8, ptr %this, i64 192
  store i8 1, ptr %m_created_compound, align 8
  br label %for.body

for.body:                                         ; preds = %for.body.preheader, %_ZN6vectorI14dependent_exprLb1EjED2Ev.exit
  %rounds.018 = phi i32 [ %inc, %_ZN6vectorI14dependent_exprLb1EjED2Ev.exit ], [ 0, %for.body.preheader ]
  store i8 0, ptr %m_created_compound, align 8
  invoke void @_ZN18elim_unconstrained10init_nodesEv(ptr noundef nonnull align 8 dereferenceable(194) %this)
          to label %invoke.cont6 unwind label %lpad.loopexit

invoke.cont6:                                     ; preds = %for.body
  invoke void @_ZN18elim_unconstrained9eliminateEv(ptr noundef nonnull align 8 dereferenceable(194) %this)
          to label %invoke.cont7 unwind label %lpad.loopexit

invoke.cont7:                                     ; preds = %invoke.cont6
  invoke void @_ZN18elim_unconstrained17reconstruct_termsEv(ptr noundef nonnull align 8 dereferenceable(194) %this)
          to label %invoke.cont8 unwind label %lpad.loopexit

invoke.cont8:                                     ; preds = %invoke.cont7
  store ptr null, ptr %old_fmls, align 8
  invoke void @_ZN18elim_unconstrained17assert_normalizedER6vectorI14dependent_exprLb1EjE(ptr noundef nonnull align 8 dereferenceable(194) %this, ptr noundef nonnull align 8 dereferenceable(8) %old_fmls)
          to label %invoke.cont10 unwind label %lpad9

invoke.cont10:                                    ; preds = %invoke.cont8
  %2 = load ptr, ptr %mc, align 8
  invoke void @_ZN18elim_unconstrained18update_model_trailER23generic_model_converterRK6vectorI14dependent_exprLb1EjE(ptr noundef nonnull align 8 dereferenceable(194) %this, ptr noundef nonnull align 8 dereferenceable(80) %2, ptr noundef nonnull align 8 dereferenceable(8) %old_fmls)
          to label %invoke.cont13 unwind label %lpad9

invoke.cont13:                                    ; preds = %invoke.cont10
  %3 = load ptr, ptr %old_fmls, align 8
  %tobool.not.i.i3 = icmp eq ptr %3, null
  br i1 %tobool.not.i.i3, label %_ZN6vectorI14dependent_exprLb1EjED2Ev.exit, label %_ZNK6vectorI14dependent_exprLb1EjE4sizeEv.exit.i.i.i

_ZNK6vectorI14dependent_exprLb1EjE4sizeEv.exit.i.i.i: ; preds = %invoke.cont13
  %arrayidx.i.i.i.i = getelementptr inbounds i8, ptr %3, i64 -4
  %4 = load i32, ptr %arrayidx.i.i.i.i, align 4
  %cmp.not4.i.i.i.i.i.i = icmp eq i32 %4, 0
  br i1 %cmp.not4.i.i.i.i.i.i, label %_ZN6vectorI14dependent_exprLb1EjE16destroy_elementsEv.exit.i.i, label %for.body.i.i.i.i.i.i

for.body.i.i.i.i.i.i:                             ; preds = %_ZNK6vectorI14dependent_exprLb1EjE4sizeEv.exit.i.i.i, %_ZN14dependent_exprD2Ev.exit
  %__count.addr.06.i.i.i.i.i.i = phi i32 [ %dec.i.i.i.i.i.i, %_ZN14dependent_exprD2Ev.exit ], [ %4, %_ZNK6vectorI14dependent_exprLb1EjE4sizeEv.exit.i.i.i ]
  %__first.addr.05.i.i.i.i.i.i = phi ptr [ %incdec.ptr.i.i.i.i.i.i, %_ZN14dependent_exprD2Ev.exit ], [ %3, %_ZNK6vectorI14dependent_exprLb1EjE4sizeEv.exit.i.i.i ]
  %5 = load ptr, ptr %__first.addr.05.i.i.i.i.i.i, align 8
  %m_fml.i = getelementptr inbounds i8, ptr %__first.addr.05.i.i.i.i.i.i, i64 8
  %6 = load ptr, ptr %m_fml.i, align 8
  %tobool.not.i.i8 = icmp eq ptr %6, null
  br i1 %tobool.not.i.i8, label %invoke.cont.i, label %if.then.i.i9

if.then.i.i9:                                     ; preds = %for.body.i.i.i.i.i.i
  %m_ref_count.i.i.i10 = getelementptr inbounds i8, ptr %6, i64 8
  %7 = load i32, ptr %m_ref_count.i.i.i10, align 4
  %dec.i.i.i11 = add i32 %7, -1
  store i32 %dec.i.i.i11, ptr %m_ref_count.i.i.i10, align 4
  %cmp.i.i = icmp eq i32 %dec.i.i.i11, 0
  br i1 %cmp.i.i, label %if.then2.i.i, label %invoke.cont.i

if.then2.i.i:                                     ; preds = %if.then.i.i9
  invoke void @_ZN11ast_manager11delete_nodeEP3ast(ptr noundef nonnull align 8 dereferenceable(976) %5, ptr noundef nonnull %6)
          to label %invoke.cont.i unwind label %terminate.lpad.i14

invoke.cont.i:                                    ; preds = %if.then2.i.i, %if.then.i.i9, %for.body.i.i.i.i.i.i
  %8 = load ptr, ptr %__first.addr.05.i.i.i.i.i.i, align 8
  %m_dep.i = getelementptr inbounds i8, ptr %__first.addr.05.i.i.i.i.i.i, i64 24
  %9 = load ptr, ptr %m_dep.i, align 8
  %tobool.not.i1.i = icmp eq ptr %9, null
  br i1 %tobool.not.i1.i, label %invoke.cont3.i, label %if.then.i.i.i12

if.then.i.i.i12:                                  ; preds = %invoke.cont.i
  %bf.load.i.i.i = load i32, ptr %9, align 4
  %dec.i.i2.i = add i32 %bf.load.i.i.i, 1073741823
  %bf.value.i.i.i = and i32 %dec.i.i2.i, 1073741823
  %bf.clear3.i.i.i = and i32 %bf.load.i.i.i, -1073741824
  %bf.set.i.i.i = or disjoint i32 %bf.value.i.i.i, %bf.clear3.i.i.i
  store i32 %bf.set.i.i.i, ptr %9, align 4
  %cmp.i.i.i13 = icmp eq i32 %bf.value.i.i.i, 0
  br i1 %cmp.i.i.i13, label %if.then6.i.i.i, label %invoke.cont3.i

if.then6.i.i.i:                                   ; preds = %if.then.i.i.i12
  %m_expr_dependency_manager.i.i = getelementptr inbounds i8, ptr %8, i64 648
  invoke void @_ZN18dependency_managerIN11ast_manager22expr_dependency_configEE3delEPNS2_10dependencyE(ptr noundef nonnull align 8 dereferenceable(24) %m_expr_dependency_manager.i.i, ptr noundef nonnull %9)
          to label %invoke.cont3.i unwind label %terminate.lpad.i14

invoke.cont3.i:                                   ; preds = %if.then6.i.i.i, %if.then.i.i.i12, %invoke.cont.i
  %10 = load ptr, ptr %__first.addr.05.i.i.i.i.i.i, align 8
  %m_proof.i = getelementptr inbounds i8, ptr %__first.addr.05.i.i.i.i.i.i, i64 16
  %11 = load ptr, ptr %m_proof.i, align 8
  %tobool.not.i4.i = icmp eq ptr %11, null
  br i1 %tobool.not.i4.i, label %_ZN14dependent_exprD2Ev.exit, label %if.then.i5.i

if.then.i5.i:                                     ; preds = %invoke.cont3.i
  %m_ref_count.i.i6.i = getelementptr inbounds i8, ptr %11, i64 8
  %12 = load i32, ptr %m_ref_count.i.i6.i, align 4
  %dec.i.i7.i = add i32 %12, -1
  store i32 %dec.i.i7.i, ptr %m_ref_count.i.i6.i, align 4
  %cmp.i8.i = icmp eq i32 %dec.i.i7.i, 0
  br i1 %cmp.i8.i, label %if.then2.i9.i, label %_ZN14dependent_exprD2Ev.exit

if.then2.i9.i:                                    ; preds = %if.then.i5.i
  invoke void @_ZN11ast_manager11delete_nodeEP3ast(ptr noundef nonnull align 8 dereferenceable(976) %10, ptr noundef nonnull %11)
          to label %_ZN14dependent_exprD2Ev.exit unwind label %terminate.lpad.i14

terminate.lpad.i14:                               ; preds = %if.then2.i9.i, %if.then6.i.i.i, %if.then2.i.i
  %13 = landingpad { ptr, i32 }
          catch ptr null
  %14 = extractvalue { ptr, i32 } %13, 0
  call void @__clang_call_terminate(ptr %14) #17
  unreachable

_ZN14dependent_exprD2Ev.exit:                     ; preds = %invoke.cont3.i, %if.then.i5.i, %if.then2.i9.i
  call void @llvm.memset.p0.i64(ptr noundef nonnull align 8 dereferenceable(24) %m_fml.i, i8 0, i64 24, i1 false)
  %incdec.ptr.i.i.i.i.i.i = getelementptr inbounds i8, ptr %__first.addr.05.i.i.i.i.i.i, i64 32
  %dec.i.i.i.i.i.i = add i32 %__count.addr.06.i.i.i.i.i.i, -1
  %cmp.not.i.i.i.i.i.i = icmp eq i32 %dec.i.i.i.i.i.i, 0
  br i1 %cmp.not.i.i.i.i.i.i, label %_ZN6vectorI14dependent_exprLb1EjE16destroy_elementsEv.exit.loopexit.i.i, label %for.body.i.i.i.i.i.i, !llvm.loop !26

_ZN6vectorI14dependent_exprLb1EjE16destroy_elementsEv.exit.loopexit.i.i: ; preds = %_ZN14dependent_exprD2Ev.exit
  %.pre.i.i = load ptr, ptr %old_fmls, align 8
  br label %_ZN6vectorI14dependent_exprLb1EjE16destroy_elementsEv.exit.i.i

_ZN6vectorI14dependent_exprLb1EjE16destroy_elementsEv.exit.i.i: ; preds = %_ZN6vectorI14dependent_exprLb1EjE16destroy_elementsEv.exit.loopexit.i.i, %_ZNK6vectorI14dependent_exprLb1EjE4sizeEv.exit.i.i.i
  %15 = phi ptr [ %.pre.i.i, %_ZN6vectorI14dependent_exprLb1EjE16destroy_elementsEv.exit.loopexit.i.i ], [ %3, %_ZNK6vectorI14dependent_exprLb1EjE4sizeEv.exit.i.i.i ]
  %add.ptr.i.i.i = getelementptr inbounds i8, ptr %15, i64 -8
  invoke void @_ZN6memory10deallocateEPv(ptr noundef nonnull %add.ptr.i.i.i)
          to label %_ZN6vectorI14dependent_exprLb1EjED2Ev.exit unwind label %terminate.lpad.i

terminate.lpad.i:                                 ; preds = %_ZN6vectorI14dependent_exprLb1EjE16destroy_elementsEv.exit.i.i
  %16 = landingpad { ptr, i32 }
          catch ptr null
  %17 = extractvalue { ptr, i32 } %16, 0
  call void @__clang_call_terminate(ptr %17) #17
  unreachable

_ZN6vectorI14dependent_exprLb1EjED2Ev.exit:       ; preds = %invoke.cont13, %_ZN6vectorI14dependent_exprLb1EjE16destroy_elementsEv.exit.i.i
  %inc = add nuw nsw i32 %rounds.018, 1
  %18 = load i8, ptr %m_created_compound, align 8
  %19 = and i8 %18, 1
  %tobool = icmp ne i8 %19, 0
  %cmp = icmp ult i32 %rounds.018, 2
  %20 = select i1 %tobool, i1 %cmp, i1 false
  br i1 %20, label %for.body, label %for.end, !llvm.loop !27

lpad.loopexit:                                    ; preds = %for.body, %invoke.cont6, %invoke.cont7
  %lpad.loopexit15 = landingpad { ptr, i32 }
          cleanup
  br label %ehcleanup

lpad.loopexit.split-lp:                           ; preds = %_ZN3refI23generic_model_converterEC2EPS0_.exit
  %lpad.loopexit.split-lp16 = landingpad { ptr, i32 }
          cleanup
  br label %ehcleanup

lpad9:                                            ; preds = %invoke.cont10, %invoke.cont8
  %21 = landingpad { ptr, i32 }
          cleanup
  call void @_ZN6vectorI14dependent_exprLb1EjED2Ev(ptr noundef nonnull align 8 dereferenceable(8) %old_fmls) #18
  br label %ehcleanup

for.end:                                          ; preds = %_ZN6vectorI14dependent_exprLb1EjED2Ev.exit
  %.pre = load ptr, ptr %mc, align 8
  %tobool.not.i.i4 = icmp eq ptr %.pre, null
  br i1 %tobool.not.i.i4, label %_ZN3refI23generic_model_converterED2Ev.exit, label %if.then.i.i5

if.then.i.i5:                                     ; preds = %for.end
  %m_ref_count.i.i.i6 = getelementptr inbounds i8, ptr %.pre, i64 8
  %22 = load i32, ptr %m_ref_count.i.i.i6, align 8
  %dec.i.i.i = add i32 %22, -1
  store i32 %dec.i.i.i, ptr %m_ref_count.i.i.i6, align 8
  %cmp.i.i.i = icmp eq i32 %dec.i.i.i, 0
  br i1 %cmp.i.i.i, label %if.then.i.i.i, label %_ZN3refI23generic_model_converterED2Ev.exit

if.then.i.i.i:                                    ; preds = %if.then.i.i5
  %vtable.i.i.i.i = load ptr, ptr %.pre, align 8
  %23 = load ptr, ptr %vtable.i.i.i.i, align 8
  call void %23(ptr noundef nonnull align 8 dereferenceable(12) %.pre) #18
  invoke void @_ZN6memory10deallocateEPv(ptr noundef nonnull %.pre)
          to label %_ZN3refI23generic_model_converterED2Ev.exit unwind label %terminate.lpad.i7

terminate.lpad.i7:                                ; preds = %if.then.i.i.i
  %24 = landingpad { ptr, i32 }
          catch ptr null
  %25 = extractvalue { ptr, i32 } %24, 0
  call void @__clang_call_terminate(ptr %25) #17
  unreachable

_ZN3refI23generic_model_converterED2Ev.exit:      ; preds = %for.end, %if.then.i.i5, %if.then.i.i.i
  ret void

ehcleanup:                                        ; preds = %lpad.loopexit, %lpad.loopexit.split-lp, %lpad9
  %.pn = phi { ptr, i32 } [ %21, %lpad9 ], [ %lpad.loopexit15, %lpad.loopexit ], [ %lpad.loopexit.split-lp16, %lpad.loopexit.split-lp ]
  call void @_ZN3refI23generic_model_converterED2Ev(ptr noundef nonnull align 8 dereferenceable(8) %mc) #18
  resume { ptr, i32 } %.pn
}